target datalayout = "e-m:e-p270:32:32-p271:32:32-p272:64:64-i64:64-i128:128-f80:128-n8:16:32:64-S128"
target triple = "x86_64-unknown-linux-gnu"

%"class.icu_75::Norms::Enumerator" = type { ptr, ptr }
%"struct.icu_75::Norm" = type { ptr, ptr, i32, i32, i32, ptr, i8, i8, i8, i8, i8, i8, i32, i32, ptr }

; Function Attrs: mustprogress uwtable
define dso_local noundef signext i8 @_ZNK6icu_759ExtraData12setNoNoDeltaEiRNS_4NormE(ptr noundef nonnull align 8 dereferenceable(888) %this, i32 noundef %c, ptr noundef nonnull align 8 dereferenceable(64) %norm) #0 align 2 {
entry:
  %retval = alloca i8, align 1
  %this.addr = alloca ptr, align 8
  %c.addr = alloca i32, align 4
  %norm.addr = alloca ptr, align 8
  %delta = alloca i32, align 4
  store ptr %this, ptr %this.addr, align 8
  store i32 %c, ptr %c.addr, align 4
  store ptr %norm, ptr %norm.addr, align 8
  %this1 = load ptr, ptr %this.addr, align 8
  %0 = load ptr, ptr %norm.addr, align 8
  %mappingCP = getelementptr inbounds %"struct.icu_75::Norm", ptr %0, i32 0, i32 2
  %1 = load i32, ptr %mappingCP, align 8
  %cmp = icmp sge i32 %1, 0
  br i1 %cmp, label %land.lhs.true, label %if.end15

land.lhs.true:                                    ; preds = %entry
  %2 = load i32, ptr %c.addr, align 4
  %cmp2 = icmp sle i32 %2, 127
  br i1 %cmp2, label %land.lhs.true3, label %land.lhs.true6

land.lhs.true3:                                   ; preds = %land.lhs.true
  %3 = load ptr, ptr %norm.addr, align 8
  %mappingCP4 = getelementptr inbounds %"struct.icu_75::Norm", ptr %3, i32 0, i32 2
  %4 = load i32, ptr %mappingCP4, align 8
  %cmp5 = icmp sgt i32 %4, 127
  br i1 %cmp5, label %if.end15, label %land.lhs.true6

land.lhs.true6:                                   ; preds = %land.lhs.true3, %land.lhs.true
  %norms = getelementptr inbounds %"class.icu_75::Norms::Enumerator", ptr %this1, i32 0, i32 1
  %5 = load ptr, ptr %norms, align 8
  %6 = load ptr, ptr %norm.addr, align 8
  %mappingCP7 = getelementptr inbounds %"struct.icu_75::Norm", ptr %6, i32 0, i32 2
  %7 = load i32, ptr %mappingCP7, align 8
  %call = call noundef nonnull align 8 dereferenceable(64) ptr @_ZNK6icu_755Norms10getNormRefEi(ptr noundef nonnull align 8 dereferenceable(424) %5, i32 noundef %7)
  %type = getelementptr inbounds %"struct.icu_75::Norm", ptr %call, i32 0, i32 12
  %8 = load i32, ptr %type, align 8
  %cmp8 = icmp slt i32 %8, 5
  br i1 %cmp8, label %if.then, label %if.end15

if.then:                                          ; preds = %land.lhs.true6
  %9 = load ptr, ptr %norm.addr, align 8
  %mappingCP9 = getelementptr inbounds %"struct.icu_75::Norm", ptr %9, i32 0, i32 2
  %10 = load i32, ptr %mappingCP9, align 8
  %11 = load i32, ptr %c.addr, align 4
  %sub = sub nsw i32 %10, %11
  store i32 %sub, ptr %delta, align 4
  %12 = load i32, ptr %delta, align 4
  %cmp10 = icmp sle i32 -64, %12
  br i1 %cmp10, label %land.lhs.true11, label %if.end

land.lhs.true11:                                  ; preds = %if.then
  %13 = load i32, ptr %delta, align 4
  %cmp12 = icmp sle i32 %13, 64
  br i1 %cmp12, label %if.then13, label %if.end

if.then13:                                        ; preds = %land.lhs.true11
  %14 = load ptr, ptr %norm.addr, align 8
  %type14 = getelementptr inbounds %"struct.icu_75::Norm", ptr %14, i32 0, i32 12
  store i32 9, ptr %type14, align 8
  %15 = load i32, ptr %delta, align 4
  %16 = load ptr, ptr %norm.addr, align 8
  %offset = getelementptr inbounds %"struct.icu_75::Norm", ptr %16, i32 0, i32 13
  store i32 %15, ptr %offset, align 4
  store i8 1, ptr %retval, align 1
  br label %return

if.end:                                           ; preds = %land.lhs.true11, %if.then
  br label %if.end15

if.end15:                                         ; preds = %if.end, %land.lhs.true6, %land.lhs.true3, %entry
  store i8 0, ptr %retval, align 1
  br label %return

return:                                           ; preds = %if.end15, %if.then13
  %17 = load i8, ptr %retval, align 1
  ret i8 %17
}