; Function Attrs: mustprogress uwtable
define dso_local noundef signext i8 @_ZNK6icu_759ExtraData12setNoNoDeltaEiRNS_4NormE(ptr nocapture noundef nonnull readonly align 8 dereferenceable(888) %this, i32 noundef %c, ptr nocapture noundef nonnull align 8 dereferenceable(64) %norm) local_unnamed_addr #0 align 2 {
entry:
  %mappingCP = getelementptr inbounds i8, ptr %norm, i64 16
  %0 = load i32, ptr %mappingCP, align 8
  %cmp = icmp sgt i32 %0, -1
  br i1 %cmp, label %land.lhs.true, label %return

land.lhs.true:                                    ; preds = %entry
  %cmp2 = icmp slt i32 %c, 128
  %cmp5 = icmp ugt i32 %0, 127
  %or.cond9 = and i1 %cmp2, %cmp5
  br i1 %or.cond9, label %return, label %land.lhs.true6

land.lhs.true6:                                   ; preds = %land.lhs.true
  %norms = getelementptr inbounds i8, ptr %this, i64 8
  %1 = load ptr, ptr %norms, align 8
  %call = tail call noundef nonnull align 8 dereferenceable(64) ptr @_ZNK6icu_755Norms10getNormRefEi(ptr noundef nonnull align 8 dereferenceable(424) %1, i32 noundef %0)
  %type = getelementptr inbounds i8, ptr %call, i64 48
  %2 = load i32, ptr %type, align 8
  %cmp8 = icmp slt i32 %2, 5
  br i1 %cmp8, label %if.then, label %return

if.then:                                          ; preds = %land.lhs.true6
  %3 = load i32, ptr %mappingCP, align 8
  %sub = sub nsw i32 %3, %c
  %4 = add i32 %sub, 64
  %or.cond = icmp ult i32 %4, 129
  br i1 %or.cond, label %if.then13, label %return

if.then13:                                        ; preds = %if.then
  %type14 = getelementptr inbounds i8, ptr %norm, i64 48
  store i32 9, ptr %type14, align 8
  %offset = getelementptr inbounds i8, ptr %norm, i64 52
  store i32 %sub, ptr %offset, align 4
  br label %return

return:                                           ; preds = %entry, %land.lhs.true6, %if.then, %land.lhs.true, %if.then13
  %retval.0 = phi i8 [ 1, %if.then13 ], [ 0, %land.lhs.true ], [ 0, %if.then ], [ 0, %land.lhs.true6 ], [ 0, %entry ]
  ret i8 %retval.0
}